; Function Attrs: mustprogress uwtable
define hidden noundef nonnull align 8 dereferenceable(8) ptr @_ZNK3sls15datatype_plugin7displayERSo(ptr noundef nonnull readonly align 8 captures(none) dereferenceable(240) %0, ptr noundef nonnull returned align 8 dereferenceable(8) %1) unnamed_addr #3 align 2 {
  %3 = getelementptr inbounds nuw i8, ptr %0, i64 136
  %4 = load ptr, ptr %3, align 8, !tbaa !53
  %5 = icmp eq ptr %4, null
  br i1 %5, label %._crit_edge, label %_ZNK15ref_vector_coreI4expr19ref_manager_wrapperIS0_11ast_managerEE3endEv.exit

_ZNK15ref_vector_coreI4expr19ref_manager_wrapperIS0_11ast_managerEE3endEv.exit: ; preds = %2
  %6 = getelementptr inbounds i8, ptr %4, i64 -4
  %7 = load i32, ptr %6, align 4, !tbaa !84
  %8 = zext i32 %7 to i64
  %9 = getelementptr inbounds nuw ptr, ptr %4, i64 %8
  %.not10 = icmp eq i32 %7, 0
  br i1 %.not10, label %._crit_edge, label %.lr.ph

.lr.ph:                                           ; preds = %_ZNK15ref_vector_coreI4expr19ref_manager_wrapperIS0_11ast_managerEE3endEv.exit
  %10 = getelementptr inbounds nuw i8, ptr %0, i64 16
  br label %11

._crit_edge:                                      ; preds = %11, %2, %_ZNK15ref_vector_coreI4expr19ref_manager_wrapperIS0_11ast_managerEE3endEv.exit
  ret ptr %1

11:                                               ; preds = %.lr.ph, %11
  %.011 = phi ptr [ %4, %.lr.ph ], [ %15, %11 ]
  %12 = load ptr, ptr %.011, align 8, !tbaa !85
  %13 = load ptr, ptr %10, align 8, !tbaa !51
  tail call void @_Z17ast_ll_bounded_ppRSoR11ast_managerP3astj(ptr noundef nonnull align 8 dereferenceable(8) %1, ptr noundef nonnull align 8 dereferenceable(976) %13, ptr noundef %12, i32 noundef 3)
  %14 = tail call noundef nonnull align 8 dereferenceable(8) ptr @_ZSt16__ostream_insertIcSt11char_traitsIcEERSt13basic_ostreamIT_T0_ES6_PKS3_l(ptr noundef nonnull align 8 dereferenceable(8) %1, ptr noundef nonnull @.str.2, i64 noundef 1)
  %15 = getelementptr inbounds nuw i8, ptr %.011, i64 8
  %.not = icmp eq ptr %15, %9
  br i1 %.not, label %._crit_edge, label %11
}